target datalayout = "e-m:e-p270:32:32-p271:32:32-p272:64:64-i64:64-i128:128-f80:128-n8:16:32:64-S128"
target triple = "x86_64-pc-linux-gnu"

@ff_ac3_bin_to_band_tab = external constant [253 x i8], align 16
@ff_ac3_band_start_tab = external constant [51 x i8], align 16

; Function Attrs: alwaysinline nounwind willreturn memory(none) uwtable
define internal i32 @av_clip_uintp2_c(i32 noundef %0, i32 noundef %1) #5 {
  %3 = alloca i32, align 4
  %4 = alloca i32, align 4
  %5 = alloca i32, align 4
  store i32 %0, ptr %4, align 4, !tbaa !14
  store i32 %1, ptr %5, align 4, !tbaa !14
  %6 = load i32, ptr %4, align 4, !tbaa !14
  %7 = load i32, ptr %5, align 4, !tbaa !14
  %8 = shl i32 1, %7
  %9 = sub i32 %8, 1
  %10 = xor i32 %9, -1
  %11 = and i32 %6, %10
  %12 = icmp ne i32 %11, 0
  br i1 %12, label %13, label %21

13:                                               ; preds = %2
  %14 = load i32, ptr %4, align 4, !tbaa !14
  %15 = xor i32 %14, -1
  %16 = ashr i32 %15, 31
  %17 = load i32, ptr %5, align 4, !tbaa !14
  %18 = shl i32 1, %17
  %19 = sub i32 %18, 1
  %20 = and i32 %16, %19
  store i32 %20, ptr %3, align 4
  br label %23

21:                                               ; preds = %2
  %22 = load i32, ptr %4, align 4, !tbaa !14
  store i32 %22, ptr %3, align 4
  br label %23

23:                                               ; preds = %21, %13
  %24 = load i32, ptr %3, align 4
  ret i32 %24
}

; Function Attrs: nounwind uwtable
define internal void @ac3_bit_alloc_calc_bap_c(ptr noundef %0, ptr noundef %1, i32 noundef %2, i32 noundef %3, i32 noundef %4, i32 noundef %5, ptr noundef %6, ptr noundef %7) #0 {
  %9 = alloca ptr, align 8
  %10 = alloca ptr, align 8
  %11 = alloca i32, align 4
  %12 = alloca i32, align 4
  %13 = alloca i32, align 4
  %14 = alloca i32, align 4
  %15 = alloca ptr, align 8
  %16 = alloca ptr, align 8
  %17 = alloca i32, align 4
  %18 = alloca i32, align 4
  %19 = alloca i32, align 4
  %20 = alloca i32, align 4
  %21 = alloca i32, align 4
  %22 = alloca i32, align 4
  store ptr %0, ptr %9, align 8, !tbaa !20
  store ptr %1, ptr %10, align 8, !tbaa !20
  store i32 %2, ptr %11, align 4, !tbaa !14
  store i32 %3, ptr %12, align 4, !tbaa !14
  store i32 %4, ptr %13, align 4, !tbaa !14
  store i32 %5, ptr %14, align 4, !tbaa !14
  store ptr %6, ptr %15, align 8, !tbaa !56
  store ptr %7, ptr %16, align 8, !tbaa !56
  call void @llvm.lifetime.start.p0(i64 4, ptr %17) #6
  call void @llvm.lifetime.start.p0(i64 4, ptr %18) #6
  call void @llvm.lifetime.start.p0(i64 4, ptr %19) #6
  %23 = load i32, ptr %13, align 4, !tbaa !14
  %24 = icmp eq i32 %23, -960
  br i1 %24, label %25, label %27

25:                                               ; preds = %8
  %26 = load ptr, ptr %16, align 8, !tbaa !56
  call void @llvm.memset.p0.i64(ptr align 1 %26, i8 0, i64 256, i1 false)
  store i32 1, ptr %20, align 4
  br label %111

27:                                               ; preds = %8
  %28 = load i32, ptr %11, align 4, !tbaa !14
  store i32 %28, ptr %17, align 4, !tbaa !14
  %29 = load i32, ptr %11, align 4, !tbaa !14
  %30 = sext i32 %29 to i64
  %31 = getelementptr inbounds [253 x i8], ptr @ff_ac3_bin_to_band_tab, i64 0, i64 %30
  %32 = load i8, ptr %31, align 1, !tbaa !58
  %33 = zext i8 %32 to i32
  store i32 %33, ptr %18, align 4, !tbaa !14
  br label %34

34:                                               ; preds = %106, %27
  call void @llvm.lifetime.start.p0(i64 4, ptr %21) #6
  %35 = load ptr, ptr %9, align 8, !tbaa !20
  %36 = load i32, ptr %18, align 4, !tbaa !14
  %37 = sext i32 %36 to i64
  %38 = getelementptr inbounds i16, ptr %35, i64 %37
  %39 = load i16, ptr %38, align 2, !tbaa !22
  %40 = sext i16 %39 to i32
  %41 = load i32, ptr %13, align 4, !tbaa !14
  %42 = sub nsw i32 %40, %41
  %43 = load i32, ptr %14, align 4, !tbaa !14
  %44 = sub nsw i32 %42, %43
  %45 = icmp sgt i32 %44, 0
  br i1 %45, label %46, label %57

46:                                               ; preds = %34
  %47 = load ptr, ptr %9, align 8, !tbaa !20
  %48 = load i32, ptr %18, align 4, !tbaa !14
  %49 = sext i32 %48 to i64
  %50 = getelementptr inbounds i16, ptr %47, i64 %49
  %51 = load i16, ptr %50, align 2, !tbaa !22
  %52 = sext i16 %51 to i32
  %53 = load i32, ptr %13, align 4, !tbaa !14
  %54 = sub nsw i32 %52, %53
  %55 = load i32, ptr %14, align 4, !tbaa !14
  %56 = sub nsw i32 %54, %55
  br label %58

57:                                               ; preds = %34
  br label %58

58:                                               ; preds = %57, %46
  %59 = phi i32 [ %56, %46 ], [ 0, %57 ]
  %60 = and i32 %59, 8160
  %61 = load i32, ptr %14, align 4, !tbaa !14
  %62 = add nsw i32 %60, %61
  store i32 %62, ptr %21, align 4, !tbaa !14
  %63 = load i32, ptr %18, align 4, !tbaa !14
  %64 = add nsw i32 %63, 1
  store i32 %64, ptr %18, align 4, !tbaa !14
  %65 = sext i32 %64 to i64
  %66 = getelementptr inbounds [51 x i8], ptr @ff_ac3_band_start_tab, i64 0, i64 %65
  %67 = load i8, ptr %66, align 1, !tbaa !58
  %68 = zext i8 %67 to i32
  store i32 %68, ptr %19, align 4, !tbaa !14
  %69 = load i32, ptr %19, align 4, !tbaa !14
  %70 = load i32, ptr %12, align 4, !tbaa !14
  %71 = icmp sgt i32 %69, %70
  br i1 %71, label %72, label %74

72:                                               ; preds = %58
  %73 = load i32, ptr %12, align 4, !tbaa !14
  br label %76

74:                                               ; preds = %58
  %75 = load i32, ptr %19, align 4, !tbaa !14
  br label %76

76:                                               ; preds = %74, %72
  %77 = phi i32 [ %73, %72 ], [ %75, %74 ]
  store i32 %77, ptr %19, align 4, !tbaa !14
  br label %78

78:                                               ; preds = %102, %76
  %79 = load i32, ptr %17, align 4, !tbaa !14
  %80 = load i32, ptr %19, align 4, !tbaa !14
  %81 = icmp slt i32 %79, %80
  br i1 %81, label %82, label %105

82:                                               ; preds = %78
  call void @llvm.lifetime.start.p0(i64 4, ptr %22) #6
  %83 = load ptr, ptr %10, align 8, !tbaa !20
  %84 = load i32, ptr %17, align 4, !tbaa !14
  %85 = sext i32 %84 to i64
  %86 = getelementptr inbounds i16, ptr %83, i64 %85
  %87 = load i16, ptr %86, align 2, !tbaa !22
  %88 = sext i16 %87 to i32
  %89 = load i32, ptr %21, align 4, !tbaa !14
  %90 = sub nsw i32 %88, %89
  %91 = ashr i32 %90, 5
  %92 = call i32 @av_clip_uintp2_c(i32 noundef %91, i32 noundef 6) #7
  store i32 %92, ptr %22, align 4, !tbaa !14
  %93 = load ptr, ptr %15, align 8, !tbaa !56
  %94 = load i32, ptr %22, align 4, !tbaa !14
  %95 = sext i32 %94 to i64
  %96 = getelementptr inbounds i8, ptr %93, i64 %95
  %97 = load i8, ptr %96, align 1, !tbaa !58
  %98 = load ptr, ptr %16, align 8, !tbaa !56
  %99 = load i32, ptr %17, align 4, !tbaa !14
  %100 = sext i32 %99 to i64
  %101 = getelementptr inbounds i8, ptr %98, i64 %100
  store i8 %97, ptr %101, align 1, !tbaa !58
  call void @llvm.lifetime.end.p0(i64 4, ptr %22) #6
  br label %102

102:                                              ; preds = %82
  %103 = load i32, ptr %17, align 4, !tbaa !14
  %104 = add nsw i32 %103, 1
  store i32 %104, ptr %17, align 4, !tbaa !14
  br label %78, !llvm.loop !62

105:                                              ; preds = %78
  call void @llvm.lifetime.end.p0(i64 4, ptr %21) #6
  br label %106

106:                                              ; preds = %105
  %107 = load i32, ptr %12, align 4, !tbaa !14
  %108 = load i32, ptr %19, align 4, !tbaa !14
  %109 = icmp sgt i32 %107, %108
  br i1 %109, label %34, label %110, !llvm.loop !63

110:                                              ; preds = %106
  store i32 0, ptr %20, align 4
  br label %111

111:                                              ; preds = %110, %25
  call void @llvm.lifetime.end.p0(i64 4, ptr %19) #6
  call void @llvm.lifetime.end.p0(i64 4, ptr %18) #6
  call void @llvm.lifetime.end.p0(i64 4, ptr %17) #6
  %112 = load i32, ptr %20, align 4
  switch i32 %112, label %114 [
    i32 0, label %113
    i32 1, label %113
  ]

113:                                              ; preds = %111, %111
  ret void

114:                                              ; preds = %111
  unreachable
}