; Function Attrs: nofree norecurse nosync nounwind memory(argmem: readwrite) uwtable
define internal void @ac3_bit_alloc_calc_bap_c(ptr noundef readonly captures(none) %0, ptr noundef readonly captures(none) %1, i32 noundef %2, i32 noundef %3, i32 noundef %4, i32 noundef %5, ptr noundef readonly captures(none) %6, ptr noundef writeonly captures(none) %7) #3 {
  %9 = icmp eq i32 %4, -960
  br i1 %9, label %10, label %11

10:                                               ; preds = %8
  tail call void @llvm.memset.p0.i64(ptr noundef nonnull align 1 dereferenceable(256) %7, i8 0, i64 256, i1 false)
  br label %.loopexit

11:                                               ; preds = %8
  %12 = sext i32 %2 to i64
  %13 = getelementptr inbounds [253 x i8], ptr @ff_ac3_bin_to_band_tab, i64 0, i64 %12
  %14 = load i8, ptr %13, align 1, !tbaa !45
  %15 = add i32 %5, %4
  %16 = zext i8 %14 to i64
  br label %17

17:                                               ; preds = %._crit_edge, %11
  %indvars.iv38 = phi i64 [ %indvars.iv.next39, %._crit_edge ], [ %16, %11 ]
  %.0 = phi i32 [ %.1.lcssa, %._crit_edge ], [ %2, %11 ]
  %indvars.iv.next39 = add nuw nsw i64 %indvars.iv38, 1
  %18 = getelementptr inbounds nuw [51 x i8], ptr @ff_ac3_band_start_tab, i64 0, i64 %indvars.iv.next39
  %19 = load i8, ptr %18, align 1, !tbaa !45
  %20 = zext i8 %19 to i32
  %21 = tail call i32 @llvm.smin.i32(i32 %3, i32 %20)
  %22 = icmp slt i32 %.0, %21
  br i1 %22, label %.lr.ph, label %._crit_edge

.lr.ph:                                           ; preds = %17
  %23 = getelementptr inbounds nuw i16, ptr %0, i64 %indvars.iv38
  %24 = load i16, ptr %23, align 2, !tbaa !14
  %25 = sext i16 %24 to i32
  %26 = sub i32 %25, %15
  %27 = tail call i32 @llvm.smax.i32(i32 %26, i32 0)
  %spec.select = and i32 %27, 8160
  %28 = add i32 %spec.select, %5
  %29 = sext i32 %.0 to i64
  %wide.trip.count = sext i32 %21 to i64
  br label %30

30:                                               ; preds = %.lr.ph, %30
  %indvars.iv = phi i64 [ %29, %.lr.ph ], [ %indvars.iv.next, %30 ]
  %31 = getelementptr inbounds i16, ptr %1, i64 %indvars.iv
  %32 = load i16, ptr %31, align 2, !tbaa !14
  %33 = sext i16 %32 to i32
  %34 = sub i32 %33, %28
  %35 = ashr i32 %34, 5
  %36 = tail call i32 @llvm.smax.i32(i32 %35, i32 0)
  %37 = tail call i32 @llvm.umin.i32(i32 %36, i32 63)
  %38 = zext nneg i32 %37 to i64
  %39 = getelementptr inbounds nuw i8, ptr %6, i64 %38
  %40 = load i8, ptr %39, align 1, !tbaa !45
  %41 = getelementptr inbounds i8, ptr %7, i64 %indvars.iv
  store i8 %40, ptr %41, align 1, !tbaa !45
  %indvars.iv.next = add nsw i64 %indvars.iv, 1
  %exitcond.not = icmp eq i64 %indvars.iv.next, %wide.trip.count
  br i1 %exitcond.not, label %._crit_edge, label %30, !llvm.loop !49

._crit_edge:                                      ; preds = %30, %17
  %.1.lcssa = phi i32 [ %.0, %17 ], [ %21, %30 ]
  %42 = icmp sgt i32 %3, %20
  br i1 %42, label %17, label %.loopexit, !llvm.loop !50

.loopexit:                                        ; preds = %._crit_edge, %10
  ret void
}